target datalayout = "e-m:e-p270:32:32-p271:32:32-p272:64:64-i64:64-i128:128-f80:128-n8:16:32:64-S128"
target triple = "x86_64-unknown-linux-gnu"

%"class.std::unique_ptr.148" = type { %"struct.std::__uniq_ptr_data.149" }
%"struct.std::__uniq_ptr_data.149" = type { %"class.std::__uniq_ptr_impl.150" }
%"class.std::__uniq_ptr_impl.150" = type { %"class.std::tuple.151" }
%"class.std::tuple.151" = type { %"struct.std::_Tuple_impl.152" }
%"struct.std::_Tuple_impl.152" = type { %"struct.std::_Head_base.155" }
%"struct.std::_Head_base.155" = type { ptr }
%"class.std::_Function_base" = type { %"union.std::_Any_data", ptr }
%"union.std::_Any_data" = type { %"union.std::_Nocopy_types" }
%"union.std::_Nocopy_types" = type { { i64, i64 } }
%"class.std::function.178" = type { %"class.std::_Function_base", ptr }
%"class.std::unique_ptr.170" = type { %"struct.std::__uniq_ptr_data.171" }
%"struct.std::__uniq_ptr_data.171" = type { %"class.std::__uniq_ptr_impl.172" }
%"class.std::__uniq_ptr_impl.172" = type { %"class.std::tuple.173" }
%"class.std::tuple.173" = type { %"struct.std::_Tuple_impl.174" }
%"struct.std::_Tuple_impl.174" = type { %"struct.std::_Head_base.175" }
%"struct.std::_Head_base.175" = type { ptr }
%"class.std::__atomic_futex_unsigned" = type { %"struct.std::atomic.176" }
%"struct.std::atomic.176" = type { %"struct.std::__atomic_base.177" }
%"struct.std::__atomic_base.177" = type { i32 }
%"struct.std::atomic_flag" = type { %"struct.std::__atomic_flag_base" }
%"struct.std::__atomic_flag_base" = type { i8 }
%"struct.std::once_flag" = type { i32 }
%"struct.std::__future_base::_Task_state_base" = type { %"class.std::__future_base::_State_baseV2.base", %"class.std::unique_ptr.148" }
%"class.std::__future_base::_State_baseV2.base" = type <{ ptr, %"class.std::unique_ptr.170", %"class.std::__atomic_futex_unsigned", %"struct.std::atomic_flag", [3 x i8], %"struct.std::once_flag" }>
%class.anon.461 = type { ptr }
%"struct.std::__future_base::_Task_setter.462" = type { ptr, ptr }

; Function Attrs: mustprogress nounwind uwtable
define linkonce_odr dso_local noundef ptr @_ZNSt9_Any_data9_M_accessEv(ptr noundef nonnull align 8 dereferenceable(16) %this) #5 comdat align 2 {
entry:
  %this.addr = alloca ptr, align 8
  store ptr %this, ptr %this.addr, align 8
  %this1 = load ptr, ptr %this.addr, align 8
  %arrayidx = getelementptr inbounds [16 x i8], ptr %this1, i64 0, i64 0
  ret ptr %arrayidx
}

; Function Attrs: mustprogress nounwind uwtable
define internal void @"_ZNSt14_Function_base13_Base_managerINSt13__future_base12_Task_setterISt10unique_ptrINS1_7_ResultIvEENS1_12_Result_base8_DeleterEEZNS1_11_Task_stateIZ4mainE3$_2SaIiEFvvEE6_M_runEvEUlvE_vEEE9_M_createISF_EEvRSt9_Any_dataOT_St17integral_constantIbLb1EE"(ptr noundef nonnull align 8 dereferenceable(16) %__dest, ptr noundef nonnull align 8 dereferenceable(16) %__f) #5 align 2 {
entry:
  %__dest.addr = alloca ptr, align 8
  %__f.addr = alloca ptr, align 8
  store ptr %__dest, ptr %__dest.addr, align 8
  store ptr %__f, ptr %__f.addr, align 8
  %0 = load ptr, ptr %__dest.addr, align 8
  %call = call noundef ptr @_ZNSt9_Any_data9_M_accessEv(ptr noundef nonnull align 8 dereferenceable(16) %0) #3
  %1 = load ptr, ptr %__f.addr, align 8
  call void @llvm.memcpy.p0.p0.i64(ptr align 8 %call, ptr align 8 %1, i64 16, i1 false)
  ret void
}

; Function Attrs: mustprogress nounwind uwtable
define linkonce_odr dso_local void @_ZNSt14_Function_baseD2Ev(ptr noundef nonnull align 8 dereferenceable(24) %this) unnamed_addr #5 comdat align 2 personality ptr @__gxx_personality_v0 {
entry:
  %this.addr = alloca ptr, align 8
  store ptr %this, ptr %this.addr, align 8
  %this1 = load ptr, ptr %this.addr, align 8
  %_M_manager = getelementptr inbounds %"class.std::_Function_base", ptr %this1, i32 0, i32 1
  %0 = load ptr, ptr %_M_manager, align 8
  %tobool = icmp ne ptr %0, null
  br i1 %tobool, label %if.then, label %if.end

if.then:                                          ; preds = %entry
  %_M_manager2 = getelementptr inbounds %"class.std::_Function_base", ptr %this1, i32 0, i32 1
  %1 = load ptr, ptr %_M_manager2, align 8
  %_M_functor = getelementptr inbounds %"class.std::_Function_base", ptr %this1, i32 0, i32 0
  %_M_functor3 = getelementptr inbounds %"class.std::_Function_base", ptr %this1, i32 0, i32 0
  %call = invoke noundef zeroext i1 %1(ptr noundef nonnull align 8 dereferenceable(16) %_M_functor, ptr noundef nonnull align 8 dereferenceable(16) %_M_functor3, i32 noundef 3)
          to label %invoke.cont unwind label %terminate.lpad

invoke.cont:                                      ; preds = %if.then
  br label %if.end

if.end:                                           ; preds = %invoke.cont, %entry
  ret void

terminate.lpad:                                   ; preds = %if.then
  %2 = landingpad { ptr, i32 }
          catch ptr null
  %3 = extractvalue { ptr, i32 } %2, 0
  call void @__clang_call_terminate(ptr %3) #22
  unreachable
}

; Function Attrs: mustprogress nounwind uwtable
define internal void @"_ZNSt14_Function_base13_Base_managerINSt13__future_base12_Task_setterISt10unique_ptrINS1_7_ResultIvEENS1_12_Result_base8_DeleterEEZNS1_11_Task_stateIZ4mainE3$_2SaIiEFvvEE6_M_runEvEUlvE_vEEE15_M_init_functorISF_EEvRSt9_Any_dataOT_"(ptr noundef nonnull align 8 dereferenceable(16) %__functor, ptr noundef nonnull align 8 dereferenceable(16) %__f) #5 align 2 personality ptr @__gxx_personality_v0 {
entry:
  %__functor.addr = alloca ptr, align 8
  %__f.addr = alloca ptr, align 8
  store ptr %__functor, ptr %__functor.addr, align 8
  store ptr %__f, ptr %__f.addr, align 8
  %0 = load ptr, ptr %__functor.addr, align 8
  %1 = load ptr, ptr %__f.addr, align 8
  invoke void @"_ZNSt14_Function_base13_Base_managerINSt13__future_base12_Task_setterISt10unique_ptrINS1_7_ResultIvEENS1_12_Result_base8_DeleterEEZNS1_11_Task_stateIZ4mainE3$_2SaIiEFvvEE6_M_runEvEUlvE_vEEE9_M_createISF_EEvRSt9_Any_dataOT_St17integral_constantIbLb1EE"(ptr noundef nonnull align 8 dereferenceable(16) %0, ptr noundef nonnull align 8 dereferenceable(16) %1)
          to label %invoke.cont unwind label %terminate.lpad

invoke.cont:                                      ; preds = %entry
  ret void

terminate.lpad:                                   ; preds = %entry
  %2 = landingpad { ptr, i32 }
          catch ptr null
  %3 = extractvalue { ptr, i32 } %2, 0
  call void @__clang_call_terminate(ptr %3) #22
  unreachable
}

; Function Attrs: mustprogress nounwind uwtable
define internal noundef zeroext i1 @"_ZNSt14_Function_base13_Base_managerINSt13__future_base12_Task_setterISt10unique_ptrINS1_7_ResultIvEENS1_12_Result_base8_DeleterEEZNS1_11_Task_stateIZ4mainE3$_2SaIiEFvvEE6_M_runEvEUlvE_vEEE21_M_not_empty_functionISF_EEbRKT_"(ptr noundef nonnull align 8 dereferenceable(16) %0) #5 align 2 {
entry:
  %.addr = alloca ptr, align 8
  store ptr %0, ptr %.addr, align 8
  ret i1 true
}

; Function Attrs: mustprogress nounwind uwtable
define linkonce_odr dso_local void @_ZNSt14_Function_baseC2Ev(ptr noundef nonnull align 8 dereferenceable(24) %this) unnamed_addr #5 comdat align 2 {
entry:
  %this.addr = alloca ptr, align 8
  store ptr %this, ptr %this.addr, align 8
  %this1 = load ptr, ptr %this.addr, align 8
  %_M_functor = getelementptr inbounds %"class.std::_Function_base", ptr %this1, i32 0, i32 0
  store ptr null, ptr %_M_functor, align 8
  %_M_manager = getelementptr inbounds %"class.std::_Function_base", ptr %this1, i32 0, i32 1
  store ptr null, ptr %_M_manager, align 8
  ret void
}

; Function Attrs: mustprogress nounwind uwtable
define linkonce_odr dso_local void @_ZNSt8functionIFSt10unique_ptrINSt13__future_base12_Result_baseENS2_8_DeleterEEvEED2Ev(ptr noundef nonnull align 8 dereferenceable(32) %this) unnamed_addr #5 comdat align 2 {
entry:
  %this.addr = alloca ptr, align 8
  store ptr %this, ptr %this.addr, align 8
  %this1 = load ptr, ptr %this.addr, align 8
  call void @_ZNSt14_Function_baseD2Ev(ptr noundef nonnull align 8 dereferenceable(24) %this1) #3
  ret void
}

; Function Attrs: mustprogress nounwind uwtable
define internal void @"_ZNSt8functionIFSt10unique_ptrINSt13__future_base12_Result_baseENS2_8_DeleterEEvEEC2INS1_12_Task_setterIS0_INS1_7_ResultIvEES3_EZNS1_11_Task_stateIZ4mainE3$_2SaIiEFvvEE6_M_runEvEUlvE_vEEvEEOT_"(ptr noundef nonnull align 8 dereferenceable(32) %this, ptr noundef nonnull align 8 dereferenceable(16) %__f) unnamed_addr #5 align 2 {
entry:
  %this.addr = alloca ptr, align 8
  %__f.addr = alloca ptr, align 8
  store ptr %this, ptr %this.addr, align 8
  store ptr %__f, ptr %__f.addr, align 8
  %this1 = load ptr, ptr %this.addr, align 8
  %0 = getelementptr inbounds i8, ptr %this1, i64 0
  call void @llvm.memset.p0.i64(ptr align 8 %0, i8 0, i64 24, i1 false)
  call void @_ZNSt14_Function_baseC2Ev(ptr noundef nonnull align 8 dereferenceable(24) %this1) #3
  %_M_invoker = getelementptr inbounds %"class.std::function.178", ptr %this1, i32 0, i32 1
  store ptr null, ptr %_M_invoker, align 8
  %1 = load ptr, ptr %__f.addr, align 8
  %call = call noundef zeroext i1 @"_ZNSt14_Function_base13_Base_managerINSt13__future_base12_Task_setterISt10unique_ptrINS1_7_ResultIvEENS1_12_Result_base8_DeleterEEZNS1_11_Task_stateIZ4mainE3$_2SaIiEFvvEE6_M_runEvEUlvE_vEEE21_M_not_empty_functionISF_EEbRKT_"(ptr noundef nonnull align 8 dereferenceable(16) %1) #3
  br i1 %call, label %if.then, label %if.end

if.then:                                          ; preds = %entry
  %_M_functor = getelementptr inbounds %"class.std::_Function_base", ptr %this1, i32 0, i32 0
  %2 = load ptr, ptr %__f.addr, align 8
  call void @"_ZNSt14_Function_base13_Base_managerINSt13__future_base12_Task_setterISt10unique_ptrINS1_7_ResultIvEENS1_12_Result_base8_DeleterEEZNS1_11_Task_stateIZ4mainE3$_2SaIiEFvvEE6_M_runEvEUlvE_vEEE15_M_init_functorISF_EEvRSt9_Any_dataOT_"(ptr noundef nonnull align 8 dereferenceable(16) %_M_functor, ptr noundef nonnull align 8 dereferenceable(16) %2) #3
  %_M_invoker2 = getelementptr inbounds %"class.std::function.178", ptr %this1, i32 0, i32 1
  store ptr @"_ZNSt17_Function_handlerIFSt10unique_ptrINSt13__future_base12_Result_baseENS2_8_DeleterEEvENS1_12_Task_setterIS0_INS1_7_ResultIvEES3_EZNS1_11_Task_stateIZ4mainE3$_2SaIiEFvvEE6_M_runEvEUlvE_vEEE9_M_invokeERKSt9_Any_data", ptr %_M_invoker2, align 8
  %_M_manager = getelementptr inbounds %"class.std::_Function_base", ptr %this1, i32 0, i32 1
  store ptr @"_ZNSt17_Function_handlerIFSt10unique_ptrINSt13__future_base12_Result_baseENS2_8_DeleterEEvENS1_12_Task_setterIS0_INS1_7_ResultIvEES3_EZNS1_11_Task_stateIZ4mainE3$_2SaIiEFvvEE6_M_runEvEUlvE_vEEE10_M_managerERSt9_Any_dataRKSI_St18_Manager_operation", ptr %_M_manager, align 8
  br label %if.end

if.end:                                           ; preds = %if.then, %entry
  ret void
}

; Function Attrs: mustprogress nounwind uwtable
define internal { ptr, ptr } @"_ZNSt13__future_base14_S_task_setterISt10unique_ptrINS_7_ResultIvEENS_12_Result_base8_DeleterEEZNS_11_Task_stateIZ4mainE3$_2SaIiEFvvEE6_M_runEvEUlvE_EENS_12_Task_setterIT_T0_NSE_12element_type11result_typeEEERSE_RSF_"(ptr noundef nonnull align 8 dereferenceable(8) %__ptr, ptr noundef nonnull align 8 dereferenceable(8) %__call) #5 align 2 {
entry:
  %retval = alloca %"struct.std::__future_base::_Task_setter.462", align 8
  %__ptr.addr = alloca ptr, align 8
  %__call.addr = alloca ptr, align 8
  store ptr %__ptr, ptr %__ptr.addr, align 8
  store ptr %__call, ptr %__call.addr, align 8
  %_M_result = getelementptr inbounds %"struct.std::__future_base::_Task_setter.462", ptr %retval, i32 0, i32 0
  %0 = load ptr, ptr %__ptr.addr, align 8
  store ptr %0, ptr %_M_result, align 8
  %_M_fn = getelementptr inbounds %"struct.std::__future_base::_Task_setter.462", ptr %retval, i32 0, i32 1
  %1 = load ptr, ptr %__call.addr, align 8
  store ptr %1, ptr %_M_fn, align 8
  %2 = load { ptr, ptr }, ptr %retval, align 8
  ret { ptr, ptr } %2
}

; Function Attrs: mustprogress uwtable
define internal void @"_ZNSt13__future_base11_Task_stateIZ4mainE3$_2SaIiEFvvEE6_M_runEv"(ptr noundef nonnull align 8 dereferenceable(48) %this) unnamed_addr #4 align 2 personality ptr @__gxx_personality_v0 {
entry:
  %this.addr = alloca ptr, align 8
  %__boundfn = alloca %class.anon.461, align 8
  %agg.tmp = alloca %"class.std::function.178", align 8
  %ref.tmp = alloca %"struct.std::__future_base::_Task_setter.462", align 8
  %exn.slot = alloca ptr, align 8
  %ehselector.slot = alloca i32, align 4
  store ptr %this, ptr %this.addr, align 8
  %this1 = load ptr, ptr %this.addr, align 8
  %0 = getelementptr inbounds %class.anon.461, ptr %__boundfn, i32 0, i32 0
  store ptr %this1, ptr %0, align 8
  %_M_result = getelementptr inbounds %"struct.std::__future_base::_Task_state_base", ptr %this1, i32 0, i32 1
  %call = call { ptr, ptr } @"_ZNSt13__future_base14_S_task_setterISt10unique_ptrINS_7_ResultIvEENS_12_Result_base8_DeleterEEZNS_11_Task_stateIZ4mainE3$_2SaIiEFvvEE6_M_runEvEUlvE_EENS_12_Task_setterIT_T0_NSE_12element_type11result_typeEEERSE_RSF_"(ptr noundef nonnull align 8 dereferenceable(8) %_M_result, ptr noundef nonnull align 8 dereferenceable(8) %__boundfn)
  %1 = getelementptr inbounds { ptr, ptr }, ptr %ref.tmp, i32 0, i32 0
  %2 = extractvalue { ptr, ptr } %call, 0
  store ptr %2, ptr %1, align 8
  %3 = getelementptr inbounds { ptr, ptr }, ptr %ref.tmp, i32 0, i32 1
  %4 = extractvalue { ptr, ptr } %call, 1
  store ptr %4, ptr %3, align 8
  call void @"_ZNSt8functionIFSt10unique_ptrINSt13__future_base12_Result_baseENS2_8_DeleterEEvEEC2INS1_12_Task_setterIS0_INS1_7_ResultIvEES3_EZNS1_11_Task_stateIZ4mainE3$_2SaIiEFvvEE6_M_runEvEUlvE_vEEvEEOT_"(ptr noundef nonnull align 8 dereferenceable(32) %agg.tmp, ptr noundef nonnull align 8 dereferenceable(16) %ref.tmp) #3
  invoke void @_ZNSt13__future_base13_State_baseV213_M_set_resultESt8functionIFSt10unique_ptrINS_12_Result_baseENS3_8_DeleterEEvEEb(ptr noundef nonnull align 8 dereferenceable(28) %this1, ptr noundef %agg.tmp, i1 noundef zeroext false)
          to label %invoke.cont unwind label %lpad

invoke.cont:                                      ; preds = %entry
  call void @_ZNSt8functionIFSt10unique_ptrINSt13__future_base12_Result_baseENS2_8_DeleterEEvEED2Ev(ptr noundef nonnull align 8 dereferenceable(32) %agg.tmp) #3
  ret void

lpad:                                             ; preds = %entry
  %5 = landingpad { ptr, i32 }
          cleanup
  %6 = extractvalue { ptr, i32 } %5, 0
  store ptr %6, ptr %exn.slot, align 8
  %7 = extractvalue { ptr, i32 } %5, 1
  store i32 %7, ptr %ehselector.slot, align 4
  call void @_ZNSt8functionIFSt10unique_ptrINSt13__future_base12_Result_baseENS2_8_DeleterEEvEED2Ev(ptr noundef nonnull align 8 dereferenceable(32) %agg.tmp) #3
  br label %eh.resume

eh.resume:                                        ; preds = %lpad
  %exn = load ptr, ptr %exn.slot, align 8
  %sel = load i32, ptr %ehselector.slot, align 4
  %lpad.val = insertvalue { ptr, i32 } poison, ptr %exn, 0
  %lpad.val2 = insertvalue { ptr, i32 } %lpad.val, i32 %sel, 1
  resume { ptr, i32 } %lpad.val2
}